target datalayout = "e-m:e-p270:32:32-p271:32:32-p272:64:64-i64:64-i128:128-f80:128-n8:16:32:64-S128"
target triple = "x86_64-pc-linux-gnu"

%struct.Abc_Ntk_t_ = type { i32, i32, ptr, ptr, ptr, ptr, ptr, ptr, ptr, ptr, ptr, ptr, ptr, [11 x i32], i32, i32, i32, i32, ptr, i32, ptr, ptr, i32, i32, i32, double, i32, %struct.Vec_Int_t_, ptr, ptr, ptr, ptr, ptr, float, i32, ptr, ptr, ptr, ptr, ptr, ptr, ptr, ptr, ptr, ptr, ptr, ptr, ptr, ptr, ptr, ptr, ptr, ptr, ptr, ptr, ptr }
%struct.Vec_Int_t_ = type { i32, i32, ptr }
%struct.Abc_Obj_t_ = type { ptr, ptr, i32, i32, %struct.Vec_Int_t_, %struct.Vec_Int_t_, %union.anon, %union.anon.0 }
%union.anon = type { ptr }
%union.anon.0 = type { ptr }
%struct.Vec_Ptr_t_ = type { i32, i32, ptr }

@.str.7 = private unnamed_addr constant [2 x i8] c"\0A\00", align 1
@.str.78 = private unnamed_addr constant [4 x i8] c" %s\00", align 1
@.str.118 = private unnamed_addr constant [14 x i8] c"Object %5d : \00", align 1
@.str.119 = private unnamed_addr constant [8 x i8] c"NONE   \00", align 1
@.str.120 = private unnamed_addr constant [8 x i8] c"Const1 \00", align 1
@.str.121 = private unnamed_addr constant [8 x i8] c"PI     \00", align 1
@.str.122 = private unnamed_addr constant [8 x i8] c"PO     \00", align 1
@.str.123 = private unnamed_addr constant [8 x i8] c"BI     \00", align 1
@.str.124 = private unnamed_addr constant [8 x i8] c"BO     \00", align 1
@.str.125 = private unnamed_addr constant [8 x i8] c"Net    \00", align 1
@.str.126 = private unnamed_addr constant [8 x i8] c"Node   \00", align 1
@.str.127 = private unnamed_addr constant [8 x i8] c"Latch  \00", align 1
@.str.128 = private unnamed_addr constant [9 x i8] c"Whitebox\00", align 1
@.str.129 = private unnamed_addr constant [9 x i8] c"Blackbox\00", align 1
@.str.130 = private unnamed_addr constant [11 x i8] c" Fanins ( \00", align 1
@.str.131 = private unnamed_addr constant [4 x i8] c"%d \00", align 1
@.str.132 = private unnamed_addr constant [3 x i8] c") \00", align 1
@.str.133 = private unnamed_addr constant [5 x i8] c" %s\0A\00", align 1

; Function Attrs: nounwind uwtable
define internal i32 @Abc_NtkIsMappedLogic(ptr noundef %0) #0 {
  %2 = alloca ptr, align 8
  store ptr %0, ptr %2, align 8
  %3 = load ptr, ptr %2, align 8
  %4 = getelementptr inbounds %struct.Abc_Ntk_t_, ptr %3, i32 0, i32 1
  %5 = load i32, ptr %4, align 4
  %6 = icmp eq i32 %5, 4
  br i1 %6, label %7, label %12

7:                                                ; preds = %1
  %8 = load ptr, ptr %2, align 8
  %9 = getelementptr inbounds %struct.Abc_Ntk_t_, ptr %8, i32 0, i32 0
  %10 = load i32, ptr %9, align 8
  %11 = icmp eq i32 %10, 2
  br label %12

12:                                               ; preds = %7, %1
  %13 = phi i1 [ false, %1 ], [ %11, %7 ]
  %14 = zext i1 %13 to i32
  ret i32 %14
}

; Function Attrs: nounwind uwtable
define internal i32 @Abc_NtkIsSopLogic(ptr noundef %0) #0 {
  %2 = alloca ptr, align 8
  store ptr %0, ptr %2, align 8
  %3 = load ptr, ptr %2, align 8
  %4 = getelementptr inbounds %struct.Abc_Ntk_t_, ptr %3, i32 0, i32 1
  %5 = load i32, ptr %4, align 4
  %6 = icmp eq i32 %5, 1
  br i1 %6, label %7, label %12

7:                                                ; preds = %1
  %8 = load ptr, ptr %2, align 8
  %9 = getelementptr inbounds %struct.Abc_Ntk_t_, ptr %8, i32 0, i32 0
  %10 = load i32, ptr %9, align 8
  %11 = icmp eq i32 %10, 2
  br label %12

12:                                               ; preds = %7, %1
  %13 = phi i1 [ false, %1 ], [ %11, %7 ]
  %14 = zext i1 %13 to i32
  ret i32 %14
}

; Function Attrs: nounwind uwtable
define internal i32 @Abc_ObjIsNode(ptr noundef %0) #0 {
  %2 = alloca ptr, align 8
  store ptr %0, ptr %2, align 8
  %3 = load ptr, ptr %2, align 8
  %4 = getelementptr inbounds %struct.Abc_Obj_t_, ptr %3, i32 0, i32 3
  %5 = load i32, ptr %4, align 4
  %6 = and i32 %5, 15
  %7 = icmp eq i32 %6, 7
  %8 = zext i1 %7 to i32
  ret i32 %8
}

; Function Attrs: nounwind uwtable
define internal ptr @Abc_ObjFanin(ptr noundef %0, i32 noundef %1) #0 {
  %3 = alloca ptr, align 8
  %4 = alloca i32, align 4
  store ptr %0, ptr %3, align 8
  store i32 %1, ptr %4, align 4
  %5 = load ptr, ptr %3, align 8
  %6 = getelementptr inbounds %struct.Abc_Obj_t_, ptr %5, i32 0, i32 0
  %7 = load ptr, ptr %6, align 8
  %8 = getelementptr inbounds %struct.Abc_Ntk_t_, ptr %7, i32 0, i32 5
  %9 = load ptr, ptr %8, align 8
  %10 = getelementptr inbounds %struct.Vec_Ptr_t_, ptr %9, i32 0, i32 2
  %11 = load ptr, ptr %10, align 8
  %12 = load ptr, ptr %3, align 8
  %13 = getelementptr inbounds %struct.Abc_Obj_t_, ptr %12, i32 0, i32 4
  %14 = getelementptr inbounds %struct.Vec_Int_t_, ptr %13, i32 0, i32 2
  %15 = load ptr, ptr %14, align 8
  %16 = load i32, ptr %4, align 4
  %17 = sext i32 %16 to i64
  %18 = getelementptr inbounds i32, ptr %15, i64 %17
  %19 = load i32, ptr %18, align 4
  %20 = sext i32 %19 to i64
  %21 = getelementptr inbounds ptr, ptr %11, i64 %20
  %22 = load ptr, ptr %21, align 8
  ret ptr %22
}

; Function Attrs: nounwind uwtable
define internal i32 @Abc_ObjFaninNum(ptr noundef %0) #0 {
  %2 = alloca ptr, align 8
  store ptr %0, ptr %2, align 8
  %3 = load ptr, ptr %2, align 8
  %4 = getelementptr inbounds %struct.Abc_Obj_t_, ptr %3, i32 0, i32 4
  %5 = getelementptr inbounds %struct.Vec_Int_t_, ptr %4, i32 0, i32 1
  %6 = load i32, ptr %5, align 4
  ret i32 %6
}

; Function Attrs: nounwind uwtable
define void @Abc_ObjPrint(ptr noundef %0, ptr noundef %1) #0 {
  %3 = alloca ptr, align 8
  %4 = alloca ptr, align 8
  %5 = alloca ptr, align 8
  %6 = alloca i32, align 4
  store ptr %0, ptr %3, align 8
  store ptr %1, ptr %4, align 8
  %7 = load ptr, ptr %3, align 8
  %8 = load ptr, ptr %4, align 8
  %9 = getelementptr inbounds %struct.Abc_Obj_t_, ptr %8, i32 0, i32 2
  %10 = load i32, ptr %9, align 8
  %11 = call i32 (ptr, ptr, ...) @fprintf(ptr noundef %7, ptr noundef @.str.118, i32 noundef %10) #11
  %12 = load ptr, ptr %4, align 8
  %13 = getelementptr inbounds %struct.Abc_Obj_t_, ptr %12, i32 0, i32 3
  %14 = load i32, ptr %13, align 4
  %15 = and i32 %14, 15
  switch i32 %15, label %49 [
    i32 0, label %16
    i32 1, label %19
    i32 2, label %22
    i32 3, label %25
    i32 4, label %28
    i32 5, label %31
    i32 6, label %34
    i32 7, label %37
    i32 8, label %40
    i32 9, label %43
    i32 10, label %46
  ]

16:                                               ; preds = %2
  %17 = load ptr, ptr %3, align 8
  %18 = call i32 (ptr, ptr, ...) @fprintf(ptr noundef %17, ptr noundef @.str.119) #11
  br label %50

19:                                               ; preds = %2
  %20 = load ptr, ptr %3, align 8
  %21 = call i32 (ptr, ptr, ...) @fprintf(ptr noundef %20, ptr noundef @.str.120) #11
  br label %50

22:                                               ; preds = %2
  %23 = load ptr, ptr %3, align 8
  %24 = call i32 (ptr, ptr, ...) @fprintf(ptr noundef %23, ptr noundef @.str.121) #11
  br label %50

25:                                               ; preds = %2
  %26 = load ptr, ptr %3, align 8
  %27 = call i32 (ptr, ptr, ...) @fprintf(ptr noundef %26, ptr noundef @.str.122) #11
  br label %50

28:                                               ; preds = %2
  %29 = load ptr, ptr %3, align 8
  %30 = call i32 (ptr, ptr, ...) @fprintf(ptr noundef %29, ptr noundef @.str.123) #11
  br label %50

31:                                               ; preds = %2
  %32 = load ptr, ptr %3, align 8
  %33 = call i32 (ptr, ptr, ...) @fprintf(ptr noundef %32, ptr noundef @.str.124) #11
  br label %50

34:                                               ; preds = %2
  %35 = load ptr, ptr %3, align 8
  %36 = call i32 (ptr, ptr, ...) @fprintf(ptr noundef %35, ptr noundef @.str.125) #11
  br label %50

37:                                               ; preds = %2
  %38 = load ptr, ptr %3, align 8
  %39 = call i32 (ptr, ptr, ...) @fprintf(ptr noundef %38, ptr noundef @.str.126) #11
  br label %50

40:                                               ; preds = %2
  %41 = load ptr, ptr %3, align 8
  %42 = call i32 (ptr, ptr, ...) @fprintf(ptr noundef %41, ptr noundef @.str.127) #11
  br label %50

43:                                               ; preds = %2
  %44 = load ptr, ptr %3, align 8
  %45 = call i32 (ptr, ptr, ...) @fprintf(ptr noundef %44, ptr noundef @.str.128) #11
  br label %50

46:                                               ; preds = %2
  %47 = load ptr, ptr %3, align 8
  %48 = call i32 (ptr, ptr, ...) @fprintf(ptr noundef %47, ptr noundef @.str.129) #11
  br label %50

49:                                               ; preds = %2
  br label %50

50:                                               ; preds = %49, %46, %43, %40, %37, %34, %31, %28, %25, %22, %19, %16
  %51 = load ptr, ptr %3, align 8
  %52 = call i32 (ptr, ptr, ...) @fprintf(ptr noundef %51, ptr noundef @.str.130) #11
  store i32 0, ptr %6, align 4
  br label %53

53:                                               ; preds = %70, %50
  %54 = load i32, ptr %6, align 4
  %55 = load ptr, ptr %4, align 8
  %56 = call i32 @Abc_ObjFaninNum(ptr noundef %55)
  %57 = icmp slt i32 %54, %56
  br i1 %57, label %58, label %62

58:                                               ; preds = %53
  %59 = load ptr, ptr %4, align 8
  %60 = load i32, ptr %6, align 4
  %61 = call ptr @Abc_ObjFanin(ptr noundef %59, i32 noundef %60)
  store ptr %61, ptr %5, align 8
  br label %62

62:                                               ; preds = %58, %53
  %63 = phi i1 [ false, %53 ], [ true, %58 ]
  br i1 %63, label %64, label %73

64:                                               ; preds = %62
  %65 = load ptr, ptr %3, align 8
  %66 = load ptr, ptr %5, align 8
  %67 = getelementptr inbounds %struct.Abc_Obj_t_, ptr %66, i32 0, i32 2
  %68 = load i32, ptr %67, align 8
  %69 = call i32 (ptr, ptr, ...) @fprintf(ptr noundef %65, ptr noundef @.str.131, i32 noundef %68) #11
  br label %70

70:                                               ; preds = %64
  %71 = load i32, ptr %6, align 4
  %72 = add nsw i32 %71, 1
  store i32 %72, ptr %6, align 4
  br label %53, !llvm.loop !88

73:                                               ; preds = %62
  %74 = load ptr, ptr %3, align 8
  %75 = call i32 (ptr, ptr, ...) @fprintf(ptr noundef %74, ptr noundef @.str.132) #11
  %76 = load ptr, ptr %4, align 8
  %77 = call i32 @Abc_ObjIsNode(ptr noundef %76)
  %78 = icmp ne i32 %77, 0
  br i1 %78, label %79, label %91

79:                                               ; preds = %73
  %80 = load ptr, ptr %4, align 8
  %81 = getelementptr inbounds %struct.Abc_Obj_t_, ptr %80, i32 0, i32 0
  %82 = load ptr, ptr %81, align 8
  %83 = call i32 @Abc_NtkIsSopLogic(ptr noundef %82)
  %84 = icmp ne i32 %83, 0
  br i1 %84, label %85, label %91

85:                                               ; preds = %79
  %86 = load ptr, ptr %3, align 8
  %87 = load ptr, ptr %4, align 8
  %88 = getelementptr inbounds %struct.Abc_Obj_t_, ptr %87, i32 0, i32 6
  %89 = load ptr, ptr %88, align 8
  %90 = call i32 (ptr, ptr, ...) @fprintf(ptr noundef %86, ptr noundef @.str.78, ptr noundef %89) #11
  br label %112

91:                                               ; preds = %79, %73
  %92 = load ptr, ptr %4, align 8
  %93 = call i32 @Abc_ObjIsNode(ptr noundef %92)
  %94 = icmp ne i32 %93, 0
  br i1 %94, label %95, label %108

95:                                               ; preds = %91
  %96 = load ptr, ptr %4, align 8
  %97 = getelementptr inbounds %struct.Abc_Obj_t_, ptr %96, i32 0, i32 0
  %98 = load ptr, ptr %97, align 8
  %99 = call i32 @Abc_NtkIsMappedLogic(ptr noundef %98)
  %100 = icmp ne i32 %99, 0
  br i1 %100, label %101, label %108

101:                                              ; preds = %95
  %102 = load ptr, ptr %3, align 8
  %103 = load ptr, ptr %4, align 8
  %104 = getelementptr inbounds %struct.Abc_Obj_t_, ptr %103, i32 0, i32 6
  %105 = load ptr, ptr %104, align 8
  %106 = call ptr @Mio_GateReadName(ptr noundef %105)
  %107 = call i32 (ptr, ptr, ...) @fprintf(ptr noundef %102, ptr noundef @.str.133, ptr noundef %106) #11
  br label %111

108:                                              ; preds = %95, %91
  %109 = load ptr, ptr %3, align 8
  %110 = call i32 (ptr, ptr, ...) @fprintf(ptr noundef %109, ptr noundef @.str.7) #11
  br label %111

111:                                              ; preds = %108, %101
  br label %112

112:                                              ; preds = %111, %85
  ret void
}