; Function Attrs: nounwind uwtable
define void @Abc_ObjPrint(ptr noundef captures(none) %0, ptr noundef readonly captures(none) %1) local_unnamed_addr #0 {
  %3 = getelementptr inbounds nuw i8, ptr %1, i64 16
  %4 = load i32, ptr %3, align 8
  %5 = tail call i32 (ptr, ptr, ...) @fprintf(ptr noundef %0, ptr noundef nonnull @.str.118, i32 noundef %4) #19
  %6 = getelementptr inbounds nuw i8, ptr %1, i64 20
  %7 = load i32, ptr %6, align 4
  %8 = and i32 %7, 15
  switch i32 %8, label %31 [
    i32 0, label %9
    i32 1, label %11
    i32 2, label %13
    i32 3, label %15
    i32 4, label %17
    i32 5, label %19
    i32 6, label %21
    i32 7, label %23
    i32 8, label %25
    i32 9, label %27
    i32 10, label %29
  ]

9:                                                ; preds = %2
  %10 = tail call i64 @fwrite(ptr nonnull @.str.119, i64 7, i64 1, ptr %0)
  br label %31

11:                                               ; preds = %2
  %12 = tail call i64 @fwrite(ptr nonnull @.str.120, i64 7, i64 1, ptr %0)
  br label %31

13:                                               ; preds = %2
  %14 = tail call i64 @fwrite(ptr nonnull @.str.121, i64 7, i64 1, ptr %0)
  br label %31

15:                                               ; preds = %2
  %16 = tail call i64 @fwrite(ptr nonnull @.str.122, i64 7, i64 1, ptr %0)
  br label %31

17:                                               ; preds = %2
  %18 = tail call i64 @fwrite(ptr nonnull @.str.123, i64 7, i64 1, ptr %0)
  br label %31

19:                                               ; preds = %2
  %20 = tail call i64 @fwrite(ptr nonnull @.str.124, i64 7, i64 1, ptr %0)
  br label %31

21:                                               ; preds = %2
  %22 = tail call i64 @fwrite(ptr nonnull @.str.125, i64 7, i64 1, ptr %0)
  br label %31

23:                                               ; preds = %2
  %24 = tail call i64 @fwrite(ptr nonnull @.str.126, i64 7, i64 1, ptr %0)
  br label %31

25:                                               ; preds = %2
  %26 = tail call i64 @fwrite(ptr nonnull @.str.127, i64 7, i64 1, ptr %0)
  br label %31

27:                                               ; preds = %2
  %28 = tail call i64 @fwrite(ptr nonnull @.str.128, i64 8, i64 1, ptr %0)
  br label %31

29:                                               ; preds = %2
  %30 = tail call i64 @fwrite(ptr nonnull @.str.129, i64 8, i64 1, ptr %0)
  br label %31

31:                                               ; preds = %2, %29, %27, %25, %23, %21, %19, %17, %15, %13, %11, %9
  %32 = tail call i64 @fwrite(ptr nonnull @.str.130, i64 10, i64 1, ptr %0)
  %33 = getelementptr i8, ptr %1, i64 28
  %.val3542 = load i32, ptr %33, align 4
  %34 = icmp sgt i32 %.val3542, 0
  br i1 %34, label %.lr.ph, label %.critedge

.lr.ph:                                           ; preds = %31
  %35 = getelementptr i8, ptr %1, i64 32
  br label %36

36:                                               ; preds = %.lr.ph, %36
  %indvars.iv = phi i64 [ 0, %.lr.ph ], [ %indvars.iv.next, %36 ]
  %.val36 = load ptr, ptr %1, align 8
  %.val37 = load ptr, ptr %35, align 8
  %37 = getelementptr i8, ptr %.val36, i64 32
  %.val36.val = load ptr, ptr %37, align 8
  %38 = getelementptr i8, ptr %.val36.val, i64 8
  %.val36.val.val = load ptr, ptr %38, align 8
  %39 = getelementptr inbounds nuw i32, ptr %.val37, i64 %indvars.iv
  %40 = load i32, ptr %39, align 4
  %41 = sext i32 %40 to i64
  %42 = getelementptr inbounds ptr, ptr %.val36.val.val, i64 %41
  %43 = load ptr, ptr %42, align 8
  %44 = getelementptr inbounds nuw i8, ptr %43, i64 16
  %45 = load i32, ptr %44, align 8
  %46 = tail call i32 (ptr, ptr, ...) @fprintf(ptr noundef %0, ptr noundef nonnull @.str.131, i32 noundef %45) #19
  %indvars.iv.next = add nuw nsw i64 %indvars.iv, 1
  %.val35 = load i32, ptr %33, align 4
  %47 = sext i32 %.val35 to i64
  %48 = icmp slt i64 %indvars.iv.next, %47
  br i1 %48, label %36, label %.critedge, !llvm.loop !91

.critedge:                                        ; preds = %36, %31
  %49 = tail call i64 @fwrite(ptr nonnull @.str.132, i64 2, i64 1, ptr %0)
  %.val34 = load i32, ptr %6, align 4
  %50 = and i32 %.val34, 15
  %.not = icmp eq i32 %50, 7
  br i1 %.not, label %51, label %Abc_NtkIsMappedLogic.exit.thread

51:                                               ; preds = %.critedge
  %52 = load ptr, ptr %1, align 8
  %53 = getelementptr inbounds nuw i8, ptr %52, i64 4
  %54 = load i32, ptr %53, align 4
  switch i32 %54, label %Abc_NtkIsMappedLogic.exit.thread [
    i32 1, label %Abc_NtkIsSopLogic.exit
    i32 4, label %Abc_NtkIsMappedLogic.exit
  ]

Abc_NtkIsSopLogic.exit:                           ; preds = %51
  %55 = load i32, ptr %52, align 8
  %.not40 = icmp eq i32 %55, 2
  br i1 %.not40, label %56, label %Abc_NtkIsMappedLogic.exit.thread

56:                                               ; preds = %Abc_NtkIsSopLogic.exit
  %57 = getelementptr inbounds nuw i8, ptr %1, i64 56
  %58 = load ptr, ptr %57, align 8
  %59 = tail call i32 (ptr, ptr, ...) @fprintf(ptr noundef %0, ptr noundef nonnull @.str.78, ptr noundef %58) #19
  br label %66

Abc_NtkIsMappedLogic.exit:                        ; preds = %51
  %60 = load i32, ptr %52, align 8
  %.not41 = icmp eq i32 %60, 2
  br i1 %.not41, label %61, label %Abc_NtkIsMappedLogic.exit.thread

61:                                               ; preds = %Abc_NtkIsMappedLogic.exit
  %62 = getelementptr inbounds nuw i8, ptr %1, i64 56
  %63 = load ptr, ptr %62, align 8
  %64 = tail call ptr @Mio_GateReadName(ptr noundef %63) #19
  %65 = tail call i32 (ptr, ptr, ...) @fprintf(ptr noundef %0, ptr noundef nonnull @.str.133, ptr noundef %64) #19
  br label %66

Abc_NtkIsMappedLogic.exit.thread:                 ; preds = %51, %Abc_NtkIsSopLogic.exit, %.critedge, %Abc_NtkIsMappedLogic.exit
  %fputc = tail call i32 @fputc(i32 10, ptr %0)
  br label %66

66:                                               ; preds = %61, %Abc_NtkIsMappedLogic.exit.thread, %56
  ret void
}